target datalayout = "e-m:e-p270:32:32-p271:32:32-p272:64:64-i64:64-i128:128-f80:128-n8:16:32:64-S128"
target triple = "x86_64-pc-linux-gnu"

%"struct.cv::detail::CheckContext" = type { ptr, ptr, i32, i32, ptr, ptr, ptr }
%"class.cv::Mat" = type { i32, i32, i32, i32, ptr, ptr, ptr, ptr, ptr, ptr, %"struct.cv::MatSize", %"struct.cv::MatStep" }
%"struct.cv::MatSize" = type { ptr }
%"struct.cv::MatStep" = type { ptr, [2 x i64] }
%"class.cv::utils::trace::details::Region" = type <{ ptr, i32, [4 x i8] }>
%"class.cv::_InputArray" = type { i32, ptr, %"class.cv::Size_" }
%"class.cv::Size_" = type { i32, i32 }
%"class.cv::Range" = type { i32, i32 }

@_ZZN2cv13imdecodemultiERKNS_11_InputArrayEiRSt6vectorINS_3MatESaIS4_EERKNS_5RangeEE16__cv_check__1299 = internal constant %"struct.cv::detail::CheckContext" { ptr @.str.22, ptr @.str.9, i32 1299, i32 5, ptr @.str.23, ptr @.str.24, ptr @.str.25 }, align 8
@_ZZN2cv13imdecodemultiERKNS_11_InputArrayEiRSt6vectorINS_3MatESaIS4_EERKNS_5RangeEE16__cv_check__1300 = internal constant %"struct.cv::detail::CheckContext" { ptr @.str.22, ptr @.str.9, i32 1300, i32 6, ptr @.str.26, ptr @.str.27, ptr @.str.25 }, align 8

; Function Attrs: inlinehint mustprogress nounwind uwtable
define linkonce_odr hidden void @_ZN2cv5RangeC2Eii(ptr noundef nonnull align 4 dereferenceable(8) %0, i32 noundef %1, i32 noundef %2) unnamed_addr #7 comdat align 2 {
  %4 = alloca ptr, align 8
  %5 = alloca i32, align 4
  %6 = alloca i32, align 4
  store ptr %0, ptr %4, align 8, !tbaa !89
  store i32 %1, ptr %5, align 4, !tbaa !10
  store i32 %2, ptr %6, align 4, !tbaa !10
  %7 = load ptr, ptr %4, align 8
  %8 = getelementptr inbounds nuw %"class.cv::Range", ptr %7, i32 0, i32 0
  %9 = load i32, ptr %5, align 4, !tbaa !10
  store i32 %9, ptr %8, align 4, !tbaa !91
  %10 = getelementptr inbounds nuw %"class.cv::Range", ptr %7, i32 0, i32 1
  %11 = load i32, ptr %6, align 4, !tbaa !10
  store i32 %11, ptr %10, align 4, !tbaa !93
  ret void
}

; Function Attrs: inlinehint mustprogress nounwind uwtable
define linkonce_odr hidden noundef i32 @_ZNK2cv5Range4sizeEv(ptr noundef nonnull align 4 dereferenceable(8) %0) #7 comdat align 2 {
  %2 = alloca ptr, align 8
  store ptr %0, ptr %2, align 8, !tbaa !89
  %3 = load ptr, ptr %2, align 8
  %4 = getelementptr inbounds nuw %"class.cv::Range", ptr %3, i32 0, i32 1
  %5 = load i32, ptr %4, align 4, !tbaa !93
  %6 = getelementptr inbounds nuw %"class.cv::Range", ptr %3, i32 0, i32 0
  %7 = load i32, ptr %6, align 4, !tbaa !91
  %8 = sub nsw i32 %5, %7
  ret i32 %8
}

; Function Attrs: inlinehint mustprogress nounwind uwtable
define internal noundef zeroext i1 @_ZN2cveqERKNS_5RangeES2_(ptr noundef nonnull align 4 dereferenceable(8) %0, ptr noundef nonnull align 4 dereferenceable(8) %1) #7 {
  %3 = alloca ptr, align 8
  %4 = alloca ptr, align 8
  store ptr %0, ptr %3, align 8, !tbaa !89
  store ptr %1, ptr %4, align 8, !tbaa !89
  %5 = load ptr, ptr %3, align 8, !tbaa !89
  %6 = getelementptr inbounds nuw %"class.cv::Range", ptr %5, i32 0, i32 0
  %7 = load i32, ptr %6, align 4, !tbaa !91
  %8 = load ptr, ptr %4, align 8, !tbaa !89
  %9 = getelementptr inbounds nuw %"class.cv::Range", ptr %8, i32 0, i32 0
  %10 = load i32, ptr %9, align 4, !tbaa !91
  %11 = icmp eq i32 %7, %10
  br i1 %11, label %12, label %20

12:                                               ; preds = %2
  %13 = load ptr, ptr %3, align 8, !tbaa !89
  %14 = getelementptr inbounds nuw %"class.cv::Range", ptr %13, i32 0, i32 1
  %15 = load i32, ptr %14, align 4, !tbaa !93
  %16 = load ptr, ptr %4, align 8, !tbaa !89
  %17 = getelementptr inbounds nuw %"class.cv::Range", ptr %16, i32 0, i32 1
  %18 = load i32, ptr %17, align 4, !tbaa !93
  %19 = icmp eq i32 %15, %18
  br label %20

20:                                               ; preds = %12, %2
  %21 = phi i1 [ false, %2 ], [ %19, %12 ]
  ret i1 %21
}

; Function Attrs: inlinehint mustprogress uwtable
define linkonce_odr hidden i64 @_ZN2cv5Range3allEv() #6 comdat align 2 {
  %1 = alloca %"class.cv::Range", align 4
  call void @_ZN2cv5RangeC2Eii(ptr noundef nonnull align 4 dereferenceable(8) %1, i32 noundef -2147483648, i32 noundef 2147483647)
  %2 = load i64, ptr %1, align 4
  ret i64 %2
}

; Function Attrs: inlinehint mustprogress uwtable
define linkonce_odr hidden void @_ZNK2cv11_InputArray6getMatEi(ptr dead_on_unwind noalias writable sret(%"class.cv::Mat") align 8 %0, ptr noundef nonnull align 8 dereferenceable(24) %1, i32 noundef %2) #6 comdat align 2 {
  %4 = alloca ptr, align 8
  %5 = alloca ptr, align 8
  %6 = alloca i32, align 4
  store ptr %0, ptr %4, align 8
  store ptr %1, ptr %5, align 8, !tbaa !71
  store i32 %2, ptr %6, align 4, !tbaa !10
  %7 = load ptr, ptr %5, align 8
  %8 = call noundef i32 @_ZNK2cv11_InputArray4kindEv(ptr noundef nonnull align 8 dereferenceable(24) %7)
  %9 = icmp eq i32 %8, 65536
  br i1 %9, label %10, label %16

10:                                               ; preds = %3
  %11 = load i32, ptr %6, align 4, !tbaa !10
  %12 = icmp slt i32 %11, 0
  br i1 %12, label %13, label %16

13:                                               ; preds = %10
  %14 = getelementptr inbounds nuw %"class.cv::_InputArray", ptr %7, i32 0, i32 1
  %15 = load ptr, ptr %14, align 8, !tbaa !80
  call void @_ZN2cv3MatC1ERKS0_(ptr noundef nonnull align 8 dereferenceable(96) %0, ptr noundef nonnull align 8 dereferenceable(96) %15)
  br label %18

16:                                               ; preds = %10, %3
  %17 = load i32, ptr %6, align 4, !tbaa !10
  call void @_ZNK2cv11_InputArray7getMat_Ei(ptr dead_on_unwind writable sret(%"class.cv::Mat") align 8 %0, ptr noundef nonnull align 8 dereferenceable(24) %7, i32 noundef %17)
  br label %18

18:                                               ; preds = %16, %13
  ret void
}

; Function Attrs: mustprogress uwtable
define noundef zeroext i1 @_ZN2cv13imdecodemultiERKNS_11_InputArrayEiRSt6vectorINS_3MatESaIS4_EERKNS_5RangeE(ptr noundef nonnull align 8 dereferenceable(24) %0, i32 noundef %1, ptr noundef nonnull align 8 dereferenceable(24) %2, ptr noundef nonnull align 4 dereferenceable(8) %3) #5 personality ptr @__gxx_personality_v0 {
  %5 = alloca i1, align 1
  %6 = alloca ptr, align 8
  %7 = alloca i32, align 4
  %8 = alloca ptr, align 8
  %9 = alloca ptr, align 8
  %10 = alloca %"class.cv::utils::trace::details::Region", align 8
  %11 = alloca %"class.cv::Mat", align 8
  %12 = alloca ptr, align 8
  %13 = alloca i32, align 4
  %14 = alloca %"class.cv::Range", align 4
  %15 = alloca i32, align 4
  store ptr %0, ptr %6, align 8, !tbaa !71
  store i32 %1, ptr %7, align 4, !tbaa !10
  store ptr %2, ptr %8, align 8, !tbaa !50
  store ptr %3, ptr %9, align 8, !tbaa !89
  call void @llvm.lifetime.start.p0(i64 16, ptr %10) #3
  call void @_ZN2cv5utils5trace7details6RegionC1ERKNS3_21LocationStaticStorageE(ptr noundef nonnull align 8 dereferenceable(12) %10, ptr noundef nonnull align 8 dereferenceable(32) @_ZZN2cv13imdecodemultiERKNS_11_InputArrayEiRSt6vectorINS_3MatESaIS4_EERKNS_5RangeEE26__cv_trace_location_fn1290)
  call void @llvm.lifetime.start.p0(i64 96, ptr %11) #3
  %16 = load ptr, ptr %6, align 8, !tbaa !71
  invoke void @_ZNK2cv11_InputArray6getMatEi(ptr dead_on_unwind writable sret(%"class.cv::Mat") align 8 %11, ptr noundef nonnull align 8 dereferenceable(24) %16, i32 noundef -1)
          to label %17 unwind label %28

17:                                               ; preds = %4
  %18 = load ptr, ptr %9, align 8, !tbaa !89
  call void @llvm.lifetime.start.p0(i64 8, ptr %14) #3
  %19 = invoke i64 @_ZN2cv5Range3allEv()
          to label %20 unwind label %32

20:                                               ; preds = %17
  store i64 %19, ptr %14, align 4
  %21 = invoke noundef zeroext i1 @_ZN2cveqERKNS_5RangeES2_(ptr noundef nonnull align 4 dereferenceable(8) %18, ptr noundef nonnull align 4 dereferenceable(8) %14)
          to label %22 unwind label %32

22:                                               ; preds = %20
  call void @llvm.lifetime.end.p0(i64 8, ptr %14) #3
  br i1 %21, label %23, label %40

23:                                               ; preds = %22
  %24 = load i32, ptr %7, align 4, !tbaa !10
  %25 = load ptr, ptr %8, align 8, !tbaa !50
  %26 = invoke noundef zeroext i1 @_ZN2cvL14imdecodemulti_ERKNS_3MatEiRSt6vectorIS0_SaIS0_EEii(ptr noundef nonnull align 8 dereferenceable(96) %11, i32 noundef %24, ptr noundef nonnull align 8 dereferenceable(24) %25, i32 noundef 0, i32 noundef -1)
          to label %27 unwind label %36

27:                                               ; preds = %23
  store i1 %26, ptr %5, align 1
  store i32 1, ptr %15, align 4
  br label %79

28:                                               ; preds = %4
  %29 = landingpad { ptr, i32 }
          cleanup
  %30 = extractvalue { ptr, i32 } %29, 0
  store ptr %30, ptr %12, align 8
  %31 = extractvalue { ptr, i32 } %29, 1
  store i32 %31, ptr %13, align 4
  br label %82

32:                                               ; preds = %20, %17
  %33 = landingpad { ptr, i32 }
          cleanup
  %34 = extractvalue { ptr, i32 } %33, 0
  store ptr %34, ptr %12, align 8
  %35 = extractvalue { ptr, i32 } %33, 1
  store i32 %35, ptr %13, align 4
  call void @llvm.lifetime.end.p0(i64 8, ptr %14) #3
  br label %81

36:                                               ; preds = %76, %68, %64, %61, %55, %47, %23
  %37 = landingpad { ptr, i32 }
          cleanup
  %38 = extractvalue { ptr, i32 } %37, 0
  store ptr %38, ptr %12, align 8
  %39 = extractvalue { ptr, i32 } %37, 1
  store i32 %39, ptr %13, align 4
  br label %81

40:                                               ; preds = %22
  br label %41

41:                                               ; preds = %40
  %42 = load ptr, ptr %9, align 8, !tbaa !89
  %43 = getelementptr inbounds nuw %"class.cv::Range", ptr %42, i32 0, i32 0
  %44 = load i32, ptr %43, align 4, !tbaa !91
  %45 = icmp sge i32 %44, 0
  br i1 %45, label %46, label %47

46:                                               ; preds = %41
  br label %52

47:                                               ; preds = %41
  %48 = load ptr, ptr %9, align 8, !tbaa !89
  %49 = getelementptr inbounds nuw %"class.cv::Range", ptr %48, i32 0, i32 0
  %50 = load i32, ptr %49, align 4, !tbaa !91
  invoke void @_ZN2cv6detail17check_failed_autoEiiRKNS0_12CheckContextE(i32 noundef %50, i32 noundef 0, ptr noundef nonnull align 8 dereferenceable(48) @_ZZN2cv13imdecodemultiERKNS_11_InputArrayEiRSt6vectorINS_3MatESaIS4_EERKNS_5RangeEE16__cv_check__1299) #23
          to label %51 unwind label %36

51:                                               ; preds = %47
  unreachable

52:                                               ; preds = %46
  br label %53

53:                                               ; preds = %52
  br label %54

54:                                               ; preds = %53
  br label %55

55:                                               ; preds = %54
  %56 = load ptr, ptr %9, align 8, !tbaa !89
  %57 = invoke noundef i32 @_ZNK2cv5Range4sizeEv(ptr noundef nonnull align 4 dereferenceable(8) %56)
          to label %58 unwind label %36

58:                                               ; preds = %55
  %59 = icmp sgt i32 %57, 0
  br i1 %59, label %60, label %61

60:                                               ; preds = %58
  br label %66

61:                                               ; preds = %58
  %62 = load ptr, ptr %9, align 8, !tbaa !89
  %63 = invoke noundef i32 @_ZNK2cv5Range4sizeEv(ptr noundef nonnull align 4 dereferenceable(8) %62)
          to label %64 unwind label %36

64:                                               ; preds = %61
  invoke void @_ZN2cv6detail17check_failed_autoEiiRKNS0_12CheckContextE(i32 noundef %63, i32 noundef 0, ptr noundef nonnull align 8 dereferenceable(48) @_ZZN2cv13imdecodemultiERKNS_11_InputArrayEiRSt6vectorINS_3MatESaIS4_EERKNS_5RangeEE16__cv_check__1300) #23
          to label %65 unwind label %36

65:                                               ; preds = %64
  unreachable

66:                                               ; preds = %60
  br label %67

67:                                               ; preds = %66
  br label %68

68:                                               ; preds = %67
  %69 = load i32, ptr %7, align 4, !tbaa !10
  %70 = load ptr, ptr %8, align 8, !tbaa !50
  %71 = load ptr, ptr %9, align 8, !tbaa !89
  %72 = getelementptr inbounds nuw %"class.cv::Range", ptr %71, i32 0, i32 0
  %73 = load i32, ptr %72, align 4, !tbaa !91
  %74 = load ptr, ptr %9, align 8, !tbaa !89
  %75 = invoke noundef i32 @_ZNK2cv5Range4sizeEv(ptr noundef nonnull align 4 dereferenceable(8) %74)
          to label %76 unwind label %36

76:                                               ; preds = %68
  %77 = invoke noundef zeroext i1 @_ZN2cvL14imdecodemulti_ERKNS_3MatEiRSt6vectorIS0_SaIS0_EEii(ptr noundef nonnull align 8 dereferenceable(96) %11, i32 noundef %69, ptr noundef nonnull align 8 dereferenceable(24) %70, i32 noundef %73, i32 noundef %75)
          to label %78 unwind label %36

78:                                               ; preds = %76
  store i1 %77, ptr %5, align 1
  store i32 1, ptr %15, align 4
  br label %79

79:                                               ; preds = %78, %27
  call void @_ZN2cv3MatD1Ev(ptr noundef nonnull align 8 dereferenceable(96) %11) #3
  call void @llvm.lifetime.end.p0(i64 96, ptr %11) #3
  call void @_ZN2cv5utils5trace7details6RegionD2Ev(ptr noundef nonnull align 8 dereferenceable(12) %10) #3
  call void @llvm.lifetime.end.p0(i64 16, ptr %10) #3
  %80 = load i1, ptr %5, align 1
  ret i1 %80

81:                                               ; preds = %36, %32
  call void @_ZN2cv3MatD1Ev(ptr noundef nonnull align 8 dereferenceable(96) %11) #3
  br label %82

82:                                               ; preds = %81, %28
  call void @llvm.lifetime.end.p0(i64 96, ptr %11) #3
  call void @_ZN2cv5utils5trace7details6RegionD2Ev(ptr noundef nonnull align 8 dereferenceable(12) %10) #3
  call void @llvm.lifetime.end.p0(i64 16, ptr %10) #3
  br label %83

83:                                               ; preds = %82
  %84 = load ptr, ptr %12, align 8
  %85 = load i32, ptr %13, align 4
  %86 = insertvalue { ptr, i32 } poison, ptr %84, 0
  %87 = insertvalue { ptr, i32 } %86, i32 %85, 1
  resume { ptr, i32 } %87
}