; Function Attrs: mustprogress uwtable
define noundef zeroext i1 @_ZN2cv13imdecodemultiERKNS_11_InputArrayEiRSt6vectorINS_3MatESaIS4_EERKNS_5RangeE(ptr noundef nonnull align 8 dereferenceable(24) %0, i32 noundef %1, ptr noundef nonnull align 8 dereferenceable(24) %2, ptr noundef nonnull readonly align 4 captures(none) dereferenceable(8) %3) local_unnamed_addr #4 personality ptr @__gxx_personality_v0 {
  %5 = alloca %"class.cv::utils::trace::details::Region", align 8
  %6 = alloca %"class.cv::Mat", align 8
  call void @llvm.lifetime.start.p0(i64 16, ptr nonnull %5) #30
  call void @_ZN2cv5utils5trace7details6RegionC1ERKNS3_21LocationStaticStorageE(ptr noundef nonnull align 8 dereferenceable(12) %5, ptr noundef nonnull align 8 dereferenceable(32) @_ZZN2cv13imdecodemultiERKNS_11_InputArrayEiRSt6vectorINS_3MatESaIS4_EERKNS_5RangeEE26__cv_trace_location_fn1290)
  call void @llvm.lifetime.start.p0(i64 96, ptr nonnull %6) #30
  %7 = invoke noundef i32 @_ZNK2cv11_InputArray4kindEv(ptr noundef nonnull align 8 dereferenceable(24) %0)
          to label %.noexc unwind label %17

.noexc:                                           ; preds = %4
  %8 = icmp eq i32 %7, 65536
  br i1 %8, label %9, label %12

9:                                                ; preds = %.noexc
  %10 = getelementptr inbounds nuw i8, ptr %0, i64 8
  %11 = load ptr, ptr %10, align 8, !tbaa !10, !noalias !196
  invoke void @_ZN2cv3MatC1ERKS0_(ptr noundef nonnull align 8 dereferenceable(96) %6, ptr noundef nonnull align 8 dereferenceable(96) %11)
          to label %_ZNK2cv11_InputArray6getMatEi.exit unwind label %17

12:                                               ; preds = %.noexc
  invoke void @_ZNK2cv11_InputArray7getMat_Ei(ptr dead_on_unwind nonnull writable sret(%"class.cv::Mat") align 8 %6, ptr noundef nonnull align 8 dereferenceable(24) %0, i32 noundef -1)
          to label %_ZNK2cv11_InputArray6getMatEi.exit unwind label %17

_ZNK2cv11_InputArray6getMatEi.exit:               ; preds = %12, %9
  %.val = load i32, ptr %3, align 4, !tbaa !199
  %13 = getelementptr inbounds nuw i8, ptr %3, i64 4
  %.val20 = load i32, ptr %13, align 4
  %14 = icmp eq i32 %.val, -2147483648
  %15 = icmp eq i32 %.val20, 2147483647
  %16 = select i1 %14, i1 %15, i1 false
  br i1 %16, label %.invoke, label %21

17:                                               ; preds = %12, %9, %4
  %18 = landingpad { ptr, i32 }
          cleanup
  br label %38

19:                                               ; preds = %.invoke25, %.invoke
  %20 = landingpad { ptr, i32 }
          cleanup
  call void @_ZN2cv3MatD1Ev(ptr noundef nonnull align 8 dereferenceable(96) %6) #30
  br label %38

21:                                               ; preds = %_ZNK2cv11_InputArray6getMatEi.exit
  %22 = icmp sgt i32 %.val, -1
  br i1 %22, label %23, label %.invoke25

23:                                               ; preds = %21
  %24 = sub nsw i32 %.val20, %.val
  %25 = icmp sgt i32 %24, 0
  br i1 %25, label %.invoke, label %.invoke25

.invoke25:                                        ; preds = %23, %21
  %26 = phi i32 [ %.val, %21 ], [ %24, %23 ]
  %27 = phi ptr [ @_ZZN2cv13imdecodemultiERKNS_11_InputArrayEiRSt6vectorINS_3MatESaIS4_EERKNS_5RangeEE16__cv_check__1299, %21 ], [ @_ZZN2cv13imdecodemultiERKNS_11_InputArrayEiRSt6vectorINS_3MatESaIS4_EERKNS_5RangeEE16__cv_check__1300, %23 ]
  invoke void @_ZN2cv6detail17check_failed_autoEiiRKNS0_12CheckContextE(i32 noundef %26, i32 noundef 0, ptr noundef nonnull align 8 dereferenceable(48) %27) #33
          to label %.cont unwind label %19

.cont:                                            ; preds = %.invoke25
  unreachable

.invoke:                                          ; preds = %_ZNK2cv11_InputArray6getMatEi.exit, %23
  %28 = phi i32 [ %.val, %23 ], [ 0, %_ZNK2cv11_InputArray6getMatEi.exit ]
  %29 = phi i32 [ %24, %23 ], [ -1, %_ZNK2cv11_InputArray6getMatEi.exit ]
  %30 = invoke fastcc noundef zeroext i1 @_ZN2cvL14imdecodemulti_ERKNS_3MatEiRSt6vectorIS0_SaIS0_EEii(ptr noundef nonnull align 8 dereferenceable(96) %6, i32 noundef %1, ptr noundef nonnull align 8 dereferenceable(24) %2, i32 noundef %28, i32 noundef %29)
          to label %31 unwind label %19

31:                                               ; preds = %.invoke
  call void @_ZN2cv3MatD1Ev(ptr noundef nonnull align 8 dereferenceable(96) %6) #30
  call void @llvm.lifetime.end.p0(i64 96, ptr nonnull %6) #30
  %32 = getelementptr inbounds nuw i8, ptr %5, i64 8
  %33 = load i32, ptr %32, align 8, !tbaa !11
  %.not.i = icmp eq i32 %33, 0
  br i1 %.not.i, label %_ZN2cv5utils5trace7details6RegionD2Ev.exit, label %34

34:                                               ; preds = %31
  invoke void @_ZN2cv5utils5trace7details6Region7destroyEv(ptr noundef nonnull align 8 dereferenceable(12) %5)
          to label %_ZN2cv5utils5trace7details6RegionD2Ev.exit unwind label %35

35:                                               ; preds = %34
  %36 = landingpad { ptr, i32 }
          catch ptr null
  %37 = extractvalue { ptr, i32 } %36, 0
  call void @__clang_call_terminate(ptr %37) #31
  unreachable

_ZN2cv5utils5trace7details6RegionD2Ev.exit:       ; preds = %31, %34
  call void @llvm.lifetime.end.p0(i64 16, ptr nonnull %5) #30
  ret i1 %30

38:                                               ; preds = %19, %17
  %.pn.pn = phi { ptr, i32 } [ %20, %19 ], [ %18, %17 ]
  call void @llvm.lifetime.end.p0(i64 96, ptr nonnull %6) #30
  call void @_ZN2cv5utils5trace7details6RegionD2Ev(ptr noundef nonnull align 8 dereferenceable(12) %5) #30
  call void @llvm.lifetime.end.p0(i64 16, ptr nonnull %5) #30
  resume { ptr, i32 } %.pn.pn
}